; Function Attrs: nounwind uwtable
define zeroext range(i8 0, 2) i8 @l_Array_anyMUnsafe_any___at_Lean_IR_HasIndex_visitParams___spec__1(ptr noundef %0, ptr noundef readonly captures(none) %1, i64 noundef %2, i64 noundef %3) local_unnamed_addr #0 {
  %.not39 = icmp eq i64 %2, %3
  br i1 %.not39, label %lean_dec.exit._crit_edge, label %.lr.ph

.lr.ph:                                           ; preds = %4
  %5 = getelementptr inbounds nuw i8, ptr %1, i64 24
  %6 = ptrtoint ptr %0 to i64
  %7 = and i64 %6, 1
  %.not38 = icmp eq i64 %7, 0
  br label %10

8:                                                ; preds = %lean_dec.exit
  %9 = add i64 %.01840, 1
  %.not = icmp eq i64 %9, %3
  br i1 %.not, label %lean_dec.exit._crit_edge, label %10

10:                                               ; preds = %.lr.ph, %8
  %.01840 = phi i64 [ %2, %.lr.ph ], [ %9, %8 ]
  %11 = getelementptr inbounds nuw [0 x ptr], ptr %5, i64 0, i64 %.01840
  %12 = load ptr, ptr %11, align 8, !tbaa !13
  %13 = ptrtoint ptr %12 to i64
  %14 = and i64 %13, 1
  %.not.i26 = icmp eq i64 %14, 0
  br i1 %.not.i26, label %15, label %lean_array_uget.exit

15:                                               ; preds = %10
  %.val.i.i = load i32, ptr %12, align 4, !tbaa !4
  %16 = icmp sgt i32 %.val.i.i, 0
  br i1 %16, label %17, label %19, !prof !9

17:                                               ; preds = %15
  %18 = add nuw i32 %.val.i.i, 1
  store i32 %18, ptr %12, align 4, !tbaa !4
  br label %lean_array_uget.exit

19:                                               ; preds = %15
  %.not.i.i = icmp eq i32 %.val.i.i, 0
  br i1 %.not.i.i, label %lean_array_uget.exit, label %20

20:                                               ; preds = %19
  tail call void @lean_inc_ref_cold(ptr noundef nonnull %12) #3
  br label %lean_array_uget.exit

lean_array_uget.exit:                             ; preds = %10, %17, %19, %20
  %21 = getelementptr inbounds nuw i8, ptr %12, i64 8
  %22 = load ptr, ptr %21, align 8, !tbaa !13
  %23 = ptrtoint ptr %22 to i64
  %24 = and i64 %23, 1
  %.not36 = icmp eq i64 %24, 0
  br i1 %.not36, label %25, label %lean_inc.exit

25:                                               ; preds = %lean_array_uget.exit
  %.val.i = load i32, ptr %22, align 4, !tbaa !4
  %26 = icmp sgt i32 %.val.i, 0
  br i1 %26, label %27, label %29, !prof !9

27:                                               ; preds = %25
  %28 = add nuw i32 %.val.i, 1
  store i32 %28, ptr %22, align 4, !tbaa !4
  br label %lean_inc.exit

29:                                               ; preds = %25
  %.not.i27 = icmp eq i32 %.val.i, 0
  br i1 %.not.i27, label %lean_inc.exit, label %30

30:                                               ; preds = %29
  tail call void @lean_inc_ref_cold(ptr noundef nonnull %22) #3
  br label %lean_inc.exit

lean_inc.exit:                                    ; preds = %30, %29, %27, %lean_array_uget.exit
  br i1 %.not.i26, label %31, label %lean_dec.exit23

31:                                               ; preds = %lean_inc.exit
  %32 = load i32, ptr %12, align 4, !tbaa !4
  %33 = icmp sgt i32 %32, 1
  br i1 %33, label %34, label %36, !prof !9

34:                                               ; preds = %31
  %35 = add nsw i32 %32, -1
  store i32 %35, ptr %12, align 4, !tbaa !4
  br label %lean_dec.exit23

36:                                               ; preds = %31
  %.not.i = icmp eq i32 %32, 0
  br i1 %.not.i, label %lean_dec.exit23, label %37

37:                                               ; preds = %36
  tail call void @lean_dec_ref_cold(ptr noundef nonnull %12) #3
  br label %lean_dec.exit23

lean_dec.exit23:                                  ; preds = %37, %36, %34, %lean_inc.exit
  br i1 %.not38, label %lean_nat_eq.exit, label %38, !prof !11

38:                                               ; preds = %lean_dec.exit23
  br i1 %.not36, label %lean_nat_eq.exit.thread29, label %lean_nat_eq.exit.thread, !prof !11

lean_nat_eq.exit.thread29:                        ; preds = %38
  %39 = tail call zeroext i1 @lean_nat_big_eq(ptr noundef %0, ptr noundef %22) #3
  %40 = zext i1 %39 to i8
  br label %45

lean_nat_eq.exit.thread:                          ; preds = %38
  %41 = icmp eq ptr %0, %22
  %42 = zext i1 %41 to i8
  br label %lean_dec.exit

lean_nat_eq.exit:                                 ; preds = %lean_dec.exit23
  %43 = tail call zeroext i1 @lean_nat_big_eq(ptr noundef %0, ptr noundef %22) #3
  %44 = zext i1 %43 to i8
  br i1 %.not36, label %45, label %lean_dec.exit

45:                                               ; preds = %lean_nat_eq.exit.thread29, %lean_nat_eq.exit
  %46 = phi i8 [ %40, %lean_nat_eq.exit.thread29 ], [ %44, %lean_nat_eq.exit ]
  %47 = load i32, ptr %22, align 4, !tbaa !4
  %48 = icmp sgt i32 %47, 1
  br i1 %48, label %49, label %51, !prof !9

49:                                               ; preds = %45
  %50 = add nsw i32 %47, -1
  store i32 %50, ptr %22, align 4, !tbaa !4
  br label %lean_dec.exit

51:                                               ; preds = %45
  %.not.i24 = icmp eq i32 %47, 0
  br i1 %.not.i24, label %lean_dec.exit, label %52

52:                                               ; preds = %51
  tail call void @lean_dec_ref_cold(ptr noundef nonnull %22) #3
  br label %lean_dec.exit

lean_dec.exit:                                    ; preds = %52, %51, %49, %lean_nat_eq.exit.thread, %lean_nat_eq.exit
  %53 = phi i8 [ %42, %lean_nat_eq.exit.thread ], [ %44, %lean_nat_eq.exit ], [ %46, %49 ], [ %46, %51 ], [ %46, %52 ]
  %54 = icmp eq i8 %53, 0
  br i1 %54, label %8, label %lean_dec.exit._crit_edge

lean_dec.exit._crit_edge:                         ; preds = %8, %lean_dec.exit, %4
  %.2.ph = phi i8 [ 0, %4 ], [ 1, %lean_dec.exit ], [ 0, %8 ]
  ret i8 %.2.ph
}